
nand.elf:     file format elf32-tradlittlemips

Disassembly of section .text:

80000000 <_start>:
80000000:	ff ff ff ff                                         ....

80000004 <reset>:
80000004:	04110001 	bal	8000000c <reset+0x8>
80000008:	00000000 	nop
8000000c:	03e0e021 	move	gp,ra
80000010:	8fe90000 	lw	t1,0(ra)
80000014:	0120e021 	move	gp,t1
80000018:	3c1d8000 	lui	sp,0x8000
8000001c:	37bd4000 	ori	sp,sp,0x4000
80000020:	3c198000 	lui	t9,0x8000
80000024:	27390570 	addiu	t9,t9,1392
80000028:	03200008 	jr	t9
8000002c:	00000000 	nop

80000030 <pll_init>:
80000030:	3c028000 	lui	v0,0x8000
80000034:	27bdff78 	addiu	sp,sp,-136
80000038:	24460e38 	addiu	a2,v0,3640
8000003c:	03a03821 	move	a3,sp
80000040:	24c80080 	addiu	t0,a2,128
80000044:	8cc20000 	lw	v0,0(a2)
80000048:	8cc30004 	lw	v1,4(a2)
8000004c:	8cc40008 	lw	a0,8(a2)
80000050:	8cc5000c 	lw	a1,12(a2)
80000054:	24c60010 	addiu	a2,a2,16
80000058:	ace20000 	sw	v0,0(a3)
8000005c:	ace30004 	sw	v1,4(a3)
80000060:	ace40008 	sw	a0,8(a3)
80000064:	ace5000c 	sw	a1,12(a3)
80000068:	14c8fff6 	bne	a2,t0,80000044 <pll_init+0x14>
8000006c:	24e70010 	addiu	a3,a3,16
80000070:	8cc20000 	lw	v0,0(a2)
80000074:	ace20000 	sw	v0,0(a3)
80000078:	8fa30010 	lw	v1,16(sp)
8000007c:	8fa20004 	lw	v0,4(sp)
80000080:	00033300 	sll	a2,v1,0xc
80000084:	00032900 	sll	a1,v1,0x4
80000088:	00032200 	sll	a0,v1,0x8
8000008c:	00a22825 	or	a1,a1,v0
80000090:	00862025 	or	a0,a0,a2
80000094:	00031c00 	sll	v1,v1,0x10
80000098:	3c024000 	lui	v0,0x4000
8000009c:	00822025 	or	a0,a0,v0
800000a0:	00a32825 	or	a1,a1,v1
800000a4:	00a42825 	or	a1,a1,a0
800000a8:	3c030020 	lui	v1,0x20
800000ac:	3c06b000 	lui	a2,0xb000
800000b0:	24020002 	li	v0,2
800000b4:	00a31824 	and	v1,a1,v1
800000b8:	24040006 	li	a0,6
800000bc:	0043200a 	movz	a0,v0,v1
800000c0:	34c2006c 	ori	v0,a2,0x6c
800000c4:	ac440000 	sw	a0,0(v0)
800000c8:	3c021c80 	lui	v0,0x1c80
800000cc:	34c70010 	ori	a3,a2,0x10
800000d0:	34420120 	ori	v0,v0,0x120
800000d4:	27bd0088 	addiu	sp,sp,136
800000d8:	acc50000 	sw	a1,0(a2)
800000dc:	ace20000 	sw	v0,0(a3)
800000e0:	03e00008 	jr	ra
800000e4:	00000000 	nop

800000e8 <sdram_init>:
800000e8:	3c028000 	lui	v0,0x8000
800000ec:	27bdffd8 	addiu	sp,sp,-40
800000f0:	24460e10 	addiu	a2,v0,3600
800000f4:	03a03821 	move	a3,sp
800000f8:	24c80020 	addiu	t0,a2,32
800000fc:	8cc20000 	lw	v0,0(a2)
80000100:	8cc30004 	lw	v1,4(a2)
80000104:	8cc40008 	lw	a0,8(a2)
80000108:	8cc5000c 	lw	a1,12(a2)
8000010c:	24c60010 	addiu	a2,a2,16
80000110:	ace20000 	sw	v0,0(a3)
80000114:	ace30004 	sw	v1,4(a3)
80000118:	ace40008 	sw	a0,8(a3)
8000011c:	ace5000c 	sw	a1,12(a3)
80000120:	14c8fff6 	bne	a2,t0,800000fc <sdram_init+0x14>
80000124:	24e70010 	addiu	a3,a3,16
80000128:	8cc20004 	lw	v0,4(a2)
8000012c:	8cc30000 	lw	v1,0(a2)
80000130:	ace20004 	sw	v0,4(a3)
80000134:	ace30000 	sw	v1,0(a3)
80000138:	3c04b000 	lui	a0,0xb000
8000013c:	8c820000 	lw	v0,0(a0)
80000140:	3c06b301 	lui	a2,0xb301
80000144:	3042000f 	andi	v0,v0,0xf
80000148:	00021080 	sll	v0,v0,0x2
8000014c:	8c830000 	lw	v1,0(a0)
80000150:	005d1021 	addu	v0,v0,sp
80000154:	acc00000 	sw	zero,0(a2)
80000158:	8c440000 	lw	a0,0(v0)
8000015c:	3c021519 	lui	v0,0x1519
80000160:	34429c80 	ori	v0,v0,0x9c80
80000164:	3063f000 	andi	v1,v1,0xf000
80000168:	70822002 	mul	a0,a0,v0
8000016c:	00031a82 	srl	v1,v1,0xa
80000170:	007d1821 	addu	v1,v1,sp
80000174:	8c620000 	lw	v0,0(v1)
80000178:	3c033b9a 	lui	v1,0x3b9a
8000017c:	0082001b 	divu	zero,a0,v0
80000180:	004001f4 	teq	v0,zero,0x7
80000184:	3463ca00 	ori	v1,v1,0xca00
80000188:	2405002d 	li	a1,45
8000018c:	34c60084 	ori	a2,a2,0x84
80000190:	a4c00000 	sh	zero,0(a2)
80000194:	00002012 	mflo	a0
80000198:	0064001b 	divu	zero,v1,a0
8000019c:	008001f4 	teq	a0,zero,0x7
800001a0:	00007012 	mflo	t6
800001a4:	00ae001b 	divu	zero,a1,t6
800001a8:	01c001f4 	teq	t6,zero,0x7
800001ac:	00001812 	mflo	v1
800001b0:	2c620004 	sltiu	v0,v1,4
800001b4:	1040004b 	beqz	v0,800002e4 <sdram_init+0x1fc>
800001b8:	2c62000c 	sltiu	v0,v1,12
800001bc:	24030004 	li	v1,4
800001c0:	2463fffc 	addiu	v1,v1,-4
800001c4:	3c02801a 	lui	v0,0x801a
800001c8:	00031b40 	sll	v1,v1,0xd
800001cc:	34420002 	ori	v0,v0,0x2
800001d0:	00622825 	or	a1,v1,v0
800001d4:	24020014 	li	v0,20
800001d8:	004e001b 	divu	zero,v0,t6
800001dc:	01c001f4 	teq	t6,zero,0x7
800001e0:	00002012 	mflo	a0
800001e4:	2c830004 	sltiu	v1,a0,4
800001e8:	1460003c 	bnez	v1,800002dc <sdram_init+0x1f4>
800001ec:	000412c0 	sll	v0,a0,0xb
800001f0:	2c820008 	sltiu	v0,a0,8
800001f4:	10400040 	beqz	v0,800002f8 <sdram_init+0x210>
800001f8:	34af1800 	ori	t7,a1,0x1800
800001fc:	0004c200 	sll	t8,a0,0x8
80000200:	24060041 	li	a2,65
80000204:	00ce001b 	divu	zero,a2,t6
80000208:	01c001f4 	teq	t6,zero,0x7
8000020c:	24020007 	li	v0,7
80000210:	24053d09 	li	a1,15625
80000214:	2404000e 	li	a0,14
80000218:	240b0003 	li	t3,3
8000021c:	3c07b301 	lui	a3,0xb301
80000220:	34e90080 	ori	t1,a3,0x80
80000224:	240800ff 	li	t0,255
80000228:	34eaa032 	ori	t2,a3,0xa032
8000022c:	34ed0084 	ori	t5,a3,0x84
80000230:	34ec008c 	ori	t4,a3,0x8c
80000234:	27bd0028 	addiu	sp,sp,40
80000238:	34e70088 	ori	a3,a3,0x88
8000023c:	00003012 	mflo	a2
80000240:	004e001b 	divu	zero,v0,t6
80000244:	01c001f4 	teq	t6,zero,0x7
80000248:	2cc3000f 	sltiu	v1,a2,15
8000024c:	00c3200b 	movn	a0,a2,v1
80000250:	24840001 	addiu	a0,a0,1
80000254:	00042042 	srl	a0,a0,0x1
80000258:	00042080 	sll	a0,a0,0x2
8000025c:	03042025 	or	a0,t8,a0
80000260:	3c060180 	lui	a2,0x180
80000264:	00001012 	mflo	v0
80000268:	00ae001b 	divu	zero,a1,t6
8000026c:	01c001f4 	teq	t6,zero,0x7
80000270:	2c430004 	sltiu	v1,v0,4
80000274:	0163100a 	movz	v0,t3,v1
80000278:	00021140 	sll	v0,v0,0x5
8000027c:	004f1025 	or	v0,v0,t7
80000280:	00441025 	or	v0,v0,a0
80000284:	3c030100 	lui	v1,0x100
80000288:	ad220000 	sw	v0,0(t1)
8000028c:	00463025 	or	a2,v0,a2
80000290:	00431825 	or	v1,v0,v1
80000294:	a1400000 	sb	zero,0(t2)
80000298:	ad230000 	sw	v1,0(t1)
8000029c:	00002812 	mflo	a1
800002a0:	00052982 	srl	a1,a1,0x6
800002a4:	24a50001 	addiu	a1,a1,1
800002a8:	2ca20100 	sltiu	v0,a1,256
800002ac:	00a2400b 	movn	t0,a1,v0
800002b0:	3c028182 	lui	v0,0x8182
800002b4:	3108ffff 	andi	t0,t0,0xffff
800002b8:	34420002 	ori	v0,v0,0x2
800002bc:	a5880000 	sh	t0,0(t4)
800002c0:	a4e00000 	sh	zero,0(a3)
800002c4:	a5ab0000 	sh	t3,0(t5)
800002c8:	ad220000 	sw	v0,0(t1)
800002cc:	a1400000 	sb	zero,0(t2)
800002d0:	ad260000 	sw	a2,0(t1)
800002d4:	03e00008 	jr	ra
800002d8:	00000000 	nop
800002dc:	0800007f 	j	800001fc <sdram_init+0x114>
800002e0:	00457825 	or	t7,v0,a1
800002e4:	1440ffb7 	bnez	v0,800001c4 <sdram_init+0xdc>
800002e8:	2463fffc 	addiu	v1,v1,-4
800002ec:	3c02801a 	lui	v0,0x801a
800002f0:	08000075 	j	800001d4 <sdram_init+0xec>
800002f4:	3445e002 	ori	a1,v0,0xe002
800002f8:	08000080 	j	80000200 <sdram_init+0x118>
800002fc:	24180700 	li	t8,1792

80000300 <serial_setbrg>:
80000300:	3c03b003 	lui	v1,0xb003
80000304:	3464000c 	ori	a0,v1,0xc
80000308:	90820000 	lbu	v0,0(a0)
8000030c:	34650004 	ori	a1,v1,0x4
80000310:	304200ff 	andi	v0,v0,0xff
80000314:	34420080 	ori	v0,v0,0x80
80000318:	3046007f 	andi	a2,v0,0x7f
8000031c:	304200ff 	andi	v0,v0,0xff
80000320:	a0820000 	sb	v0,0(a0)
80000324:	2402000d 	li	v0,13
80000328:	a0a00000 	sb	zero,0(a1)
8000032c:	a0620000 	sb	v0,0(v1)
80000330:	a0860000 	sb	a2,0(a0)
80000334:	03e00008 	jr	ra
80000338:	00000000 	nop

8000033c <serial_init>:
8000033c:	27bdffe8 	addiu	sp,sp,-24
80000340:	3c04b003 	lui	a0,0xb003
80000344:	afb00010 	sw	s0,16(sp)
80000348:	34830004 	ori	v1,a0,0x4
8000034c:	34900008 	ori	s0,a0,0x8
80000350:	2402ffef 	li	v0,-17
80000354:	afbf0014 	sw	ra,20(sp)
80000358:	3485000c 	ori	a1,a0,0xc
8000035c:	a0600000 	sb	zero,0(v1)
80000360:	34840020 	ori	a0,a0,0x20
80000364:	a2020000 	sb	v0,0(s0)
80000368:	2403fffc 	li	v1,-4
8000036c:	24020003 	li	v0,3
80000370:	a0830000 	sb	v1,0(a0)
80000374:	a0a20000 	sb	v0,0(a1)
80000378:	0c0000c0 	jal	80000300 <serial_setbrg>
8000037c:	00000000 	nop
80000380:	24020017 	li	v0,23
80000384:	a2020000 	sb	v0,0(s0)
80000388:	8fbf0014 	lw	ra,20(sp)
8000038c:	8fb00010 	lw	s0,16(sp)
80000390:	00001021 	move	v0,zero
80000394:	03e00008 	jr	ra
80000398:	27bd0018 	addiu	sp,sp,24

8000039c <serial_putc>:
8000039c:	27bdffe8 	addiu	sp,sp,-24
800003a0:	afb00010 	sw	s0,16(sp)
800003a4:	00048600 	sll	s0,a0,0x18
800003a8:	00108603 	sra	s0,s0,0x18
800003ac:	2402000a 	li	v0,10
800003b0:	1202000d 	beq	s0,v0,800003e8 <serial_putc+0x4c>
800003b4:	afbf0014 	sw	ra,20(sp)
800003b8:	3c05b003 	lui	a1,0xb003
800003bc:	34a20014 	ori	v0,a1,0x14
800003c0:	90430000 	lbu	v1,0(v0)
800003c4:	24020060 	li	v0,96
800003c8:	30630060 	andi	v1,v1,0x60
800003cc:	1462fffa 	bne	v1,v0,800003b8 <serial_putc+0x1c>
800003d0:	320200ff 	andi	v0,s0,0xff
800003d4:	a0a20000 	sb	v0,0(a1)
800003d8:	8fbf0014 	lw	ra,20(sp)
800003dc:	8fb00010 	lw	s0,16(sp)
800003e0:	03e00008 	jr	ra
800003e4:	27bd0018 	addiu	sp,sp,24
800003e8:	0c0000e7 	jal	8000039c <serial_putc>
800003ec:	2404000d 	li	a0,13
800003f0:	080000ef 	j	800003bc <serial_putc+0x20>
800003f4:	3c05b003 	lui	a1,0xb003

800003f8 <serial_puts>:
800003f8:	27bdffe8 	addiu	sp,sp,-24
800003fc:	afb00010 	sw	s0,16(sp)
80000400:	afbf0014 	sw	ra,20(sp)
80000404:	00808021 	move	s0,a0
80000408:	80840000 	lb	a0,0(a0)
8000040c:	10800006 	beqz	a0,80000428 <serial_puts+0x30>
80000410:	8fbf0014 	lw	ra,20(sp)
80000414:	0c0000e7 	jal	8000039c <serial_putc>
80000418:	26100001 	addiu	s0,s0,1
8000041c:	82040000 	lb	a0,0(s0)
80000420:	1480fffc 	bnez	a0,80000414 <serial_puts+0x1c>
80000424:	8fbf0014 	lw	ra,20(sp)
80000428:	8fb00010 	lw	s0,16(sp)
8000042c:	03e00008 	jr	ra
80000430:	27bd0018 	addiu	sp,sp,24

80000434 <serial_tstc>:
80000434:	3c03b003 	lui	v1,0xb003
80000438:	34630014 	ori	v1,v1,0x14
8000043c:	90620000 	lbu	v0,0(v1)
80000440:	03e00008 	jr	ra
80000444:	30420001 	andi	v0,v0,0x1

80000448 <serial_getc>:
80000448:	27bdffe8 	addiu	sp,sp,-24
8000044c:	afbf0010 	sw	ra,16(sp)
80000450:	0c00010d 	jal	80000434 <serial_tstc>
80000454:	00000000 	nop
80000458:	1040fffd 	beqz	v0,80000450 <serial_getc+0x8>
8000045c:	3c03b003 	lui	v1,0xb003
80000460:	90620000 	lbu	v0,0(v1)
80000464:	8fbf0010 	lw	ra,16(sp)
80000468:	304200ff 	andi	v0,v0,0xff
8000046c:	03e00008 	jr	ra
80000470:	27bd0018 	addiu	sp,sp,24
	...

80000480 <rs_correct>:
80000480:	000510c0 	sll	v0,a1,0x3
80000484:	00451021 	addu	v0,v0,a1
80000488:	30450007 	andi	a1,v0,0x7
8000048c:	24a7ffff 	addiu	a3,a1,-1
80000490:	240301ff 	li	v1,511
80000494:	00e31804 	sllv	v1,v1,a3
80000498:	00031827 	nor	v1,zero,v1
8000049c:	3068ffff 	andi	t0,v1,0xffff
800004a0:	14a00004 	bnez	a1,800004b4 <rs_correct+0x34>
800004a4:	000210c3 	sra	v0,v0,0x3
800004a8:	2442ffff 	addiu	v0,v0,-1
800004ac:	24070007 	li	a3,7
800004b0:	2408007f 	li	t0,127
800004b4:	00442821 	addu	a1,v0,a0
800004b8:	90a30000 	lbu	v1,0(a1)
800004bc:	90a4ffff 	lbu	a0,-1(a1)
800004c0:	00031a00 	sll	v1,v1,0x8
800004c4:	00641825 	or	v1,v1,a0
800004c8:	00e31007 	srav	v0,v1,a3
800004cc:	304201ff 	andi	v0,v0,0x1ff
800004d0:	00c21026 	xor	v0,a2,v0
800004d4:	3042ffff 	andi	v0,v0,0xffff
800004d8:	00e21004 	sllv	v0,v0,a3
800004dc:	00681824 	and	v1,v1,t0
800004e0:	00621825 	or	v1,v1,v0
800004e4:	3063ffff 	andi	v1,v1,0xffff
800004e8:	00031202 	srl	v0,v1,0x8
800004ec:	a0a20000 	sb	v0,0(a1)
800004f0:	03e00008 	jr	ra
800004f4:	a0a3ffff 	sb	v1,-1(a1)

800004f8 <serial_puts_hex>:
800004f8:	27bdffd8 	addiu	sp,sp,-40
800004fc:	27aa0010 	addiu	t2,sp,16
80000500:	2408001c 	li	t0,28
80000504:	01403021 	move	a2,t2
80000508:	2409fffc 	li	t1,-4
8000050c:	08000149 	j	80000524 <serial_puts_hex+0x2c>
80000510:	afbf0020 	sw	ra,32(sp)
80000514:	2508fffc 	addiu	t0,t0,-4
80000518:	a0c70000 	sb	a3,0(a2)
8000051c:	1109000c 	beq	t0,t1,80000550 <serial_puts_hex+0x58>
80000520:	24c60001 	addiu	a2,a2,1
80000524:	01041006 	srlv	v0,a0,t0
80000528:	3042000f 	andi	v0,v0,0xf
8000052c:	2c43000a 	sltiu	v1,v0,10
80000530:	24470030 	addiu	a3,v0,48
80000534:	24450037 	addiu	a1,v0,55
80000538:	1460fff6 	bnez	v1,80000514 <serial_puts_hex+0x1c>
8000053c:	a0c20000 	sb	v0,0(a2)
80000540:	2508fffc 	addiu	t0,t0,-4
80000544:	a0c50000 	sb	a1,0(a2)
80000548:	1509fff6 	bne	t0,t1,80000524 <serial_puts_hex+0x2c>
8000054c:	24c60001 	addiu	a2,a2,1
80000550:	2402000a 	li	v0,10
80000554:	01402021 	move	a0,t2
80000558:	a3a20018 	sb	v0,24(sp)
8000055c:	0c0000fe 	jal	800003f8 <serial_puts>
80000560:	a3a00019 	sb	zero,25(sp)
80000564:	8fbf0020 	lw	ra,32(sp)
80000568:	03e00008 	jr	ra
8000056c:	27bd0028 	addiu	sp,sp,40

80000570 <nand_boot>:
80000570:	3c02b001 	lui	v0,0xb001
80000574:	27bdffa0 	addiu	sp,sp,-96
80000578:	3c0381f9 	lui	v1,0x81f9
8000057c:	afb20040 	sw	s2,64(sp)
80000580:	afb1003c 	sw	s1,60(sp)
80000584:	afb00038 	sw	s0,56(sp)
80000588:	3407ffff 	li	a3,0xffff
8000058c:	344b0158 	ori	t3,v0,0x158
80000590:	344e0044 	ori	t6,v0,0x44
80000594:	344f0058 	ori	t7,v0,0x58
80000598:	3463ffff 	ori	v1,v1,0xffff
8000059c:	34500034 	ori	s0,v0,0x34
800005a0:	34510144 	ori	s1,v0,0x144
800005a4:	34520134 	ori	s2,v0,0x134
800005a8:	afbf005c 	sw	ra,92(sp)
800005ac:	afbe0058 	sw	s8,88(sp)
800005b0:	afb70054 	sw	s7,84(sp)
800005b4:	afb60050 	sw	s6,80(sp)
800005b8:	afb5004c 	sw	s5,76(sp)
800005bc:	afb40048 	sw	s4,72(sp)
800005c0:	afb30044 	sw	s3,68(sp)
800005c4:	adc70000 	sw	a3,0(t6)
800005c8:	ade70000 	sw	a3,0(t7)
800005cc:	ae070000 	sw	a3,0(s0)
800005d0:	ae230000 	sw	v1,0(s1)
800005d4:	ad630000 	sw	v1,0(t3)
800005d8:	ae430000 	sw	v1,0(s2)
800005dc:	3c03b001 	lui	v1,0xb001
800005e0:	34450258 	ori	a1,v0,0x258
800005e4:	24060400 	li	a2,1024
800005e8:	3c080700 	lui	t0,0x700
800005ec:	344c0248 	ori	t4,v0,0x248
800005f0:	344d0264 	ori	t5,v0,0x264
800005f4:	3c090600 	lui	t1,0x600
800005f8:	344a0334 	ori	t2,v0,0x334
800005fc:	34580214 	ori	t8,v0,0x214
80000600:	34590218 	ori	t9,v0,0x218
80000604:	345f0118 	ori	ra,v0,0x118
80000608:	34630344 	ori	v1,v1,0x344
8000060c:	3c040002 	lui	a0,0x2
80000610:	241e0800 	li	s8,2048
80000614:	34530244 	ori	s3,v0,0x244
80000618:	34540234 	ori	s4,v0,0x234
8000061c:	34550148 	ori	s5,v0,0x148
80000620:	34560164 	ori	s6,v0,0x164
80000624:	34570114 	ori	s7,v0,0x114
80000628:	34420354 	ori	v0,v0,0x354
8000062c:	ae680000 	sw	t0,0(s3)
80000630:	aca80000 	sw	t0,0(a1)
80000634:	ae880000 	sw	t0,0(s4)
80000638:	ad9e0000 	sw	s8,0(t4)
8000063c:	acbe0000 	sw	s8,0(a1)
80000640:	adbe0000 	sw	s8,0(t5)
80000644:	aea40000 	sw	a0,0(s5)
80000648:	ad640000 	sw	a0,0(t3)
8000064c:	aec40000 	sw	a0,0(s6)
80000650:	ad860000 	sw	a2,0(t4)
80000654:	aca60000 	sw	a2,0(a1)
80000658:	ada60000 	sw	a2,0(t5)
8000065c:	aee40000 	sw	a0,0(s7)
80000660:	af1e0000 	sw	s8,0(t8)
80000664:	af260000 	sw	a2,0(t9)
80000668:	afe40000 	sw	a0,0(ra)
8000066c:	ac690000 	sw	t1,0(v1)
80000670:	ac490000 	sw	t1,0(v0)
80000674:	ad490000 	sw	t1,0(t2)
80000678:	0c0000cf 	jal	8000033c <serial_init>
8000067c:	3c10b301 	lui	s0,0xb301
80000680:	3c048000 	lui	a0,0x8000
80000684:	0c0000fe 	jal	800003f8 <serial_puts>
80000688:	24840ec0 	addiu	a0,a0,3776
8000068c:	0c00000c 	jal	80000030 <pll_init>
80000690:	00000000 	nop
80000694:	0c00003a 	jal	800000e8 <sdram_init>
80000698:	00000000 	nop
8000069c:	3c048000 	lui	a0,0x8000
800006a0:	0c0000fe 	jal	800003f8 <serial_puts>
800006a4:	24840ee4 	addiu	a0,a0,3812
800006a8:	36020080 	ori	v0,s0,0x80
800006ac:	8c440000 	lw	a0,0(v0)
800006b0:	0c00013e 	jal	800004f8 <serial_puts_hex>
800006b4:	00000000 	nop
800006b8:	8e020000 	lw	v0,0(s0)
800006bc:	24030002 	li	v1,2
800006c0:	00021782 	srl	v0,v0,0x1e
800006c4:	104301bf 	beq	v0,v1,80000dc4 <nand_boot+0x854>
800006c8:	24020008 	li	v0,8
800006cc:	3c038000 	lui	v1,0x8000
800006d0:	ac620f44 	sw	v0,3908(v1)
800006d4:	3c158000 	lui	s5,0x8000
800006d8:	3c168000 	lui	s6,0x8000
800006dc:	3c148000 	lui	s4,0x8000
800006e0:	24030003 	li	v1,3
800006e4:	24020040 	li	v0,64
800006e8:	aebe0f40 	sw	s8,3904(s5)
800006ec:	aec30f48 	sw	v1,3912(s6)
800006f0:	ae820f4c 	sw	v0,3916(s4)
800006f4:	00005821 	move	t3,zero
800006f8:	240a0040 	li	t2,64
800006fc:	3c090002 	lui	t1,0x2
80000700:	24080004 	li	t0,4
80000704:	3c02b001 	lui	v0,0xb001
80000708:	3c031000 	lui	v1,0x1000
8000070c:	34470318 	ori	a3,v0,0x318
80000710:	34450348 	ori	a1,v0,0x348
80000714:	34460358 	ori	a2,v0,0x358
80000718:	3c048000 	lui	a0,0x8000
8000071c:	34420364 	ori	v0,v0,0x364
80000720:	3c118000 	lui	s1,0x8000
80000724:	3c128000 	lui	s2,0x8000
80000728:	aca30000 	sw	v1,0(a1)
8000072c:	24840ef8 	addiu	a0,a0,3832
80000730:	ae2b0f80 	sw	t3,3968(s1)
80000734:	3c108000 	lui	s0,0x8000
80000738:	acc30000 	sw	v1,0(a2)
8000073c:	3c138000 	lui	s3,0x8000
80000740:	ae4a0f50 	sw	t2,3920(s2)
80000744:	ac430000 	sw	v1,0(v0)
80000748:	ace30000 	sw	v1,0(a3)
8000074c:	ae090f54 	sw	t1,3924(s0)
80000750:	0c0000fe 	jal	800003f8 <serial_puts>
80000754:	ae680f58 	sw	t0,3928(s3)
80000758:	0c00013e 	jal	800004f8 <serial_puts_hex>
8000075c:	24044000 	li	a0,16384
80000760:	8e040f54 	lw	a0,3924(s0)
80000764:	3c020020 	lui	v0,0x20
80000768:	0044001a 	div	zero,v0,a0
8000076c:	008001f4 	teq	a0,zero,0x7
80000770:	00001812 	mflo	v1
80000774:	afa30034 	sw	v1,52(sp)
80000778:	3c03b301 	lui	v1,0xb301
8000077c:	34630050 	ori	v1,v1,0x50
80000780:	8c620000 	lw	v0,0(v1)
80000784:	34420003 	ori	v0,v0,0x3
80000788:	ac620000 	sw	v0,0(v1)
8000078c:	8fa20034 	lw	v0,52(sp)
80000790:	1840016b 	blez	v0,80000d40 <nand_boot+0x7d0>
80000794:	24024000 	li	v0,16384
80000798:	0044001a 	div	zero,v0,a0
8000079c:	008001f4 	teq	a0,zero,0x7
800007a0:	3c048000 	lui	a0,0x8000
800007a4:	8e940f4c 	lw	s4,3916(s4)
800007a8:	8eb50f40 	lw	s5,3904(s5)
800007ac:	8ed60f48 	lw	s6,3912(s6)
800007b0:	8c840f44 	lw	a0,3908(a0)
800007b4:	8e730f58 	lw	s3,3928(s3)
800007b8:	8e310f80 	lw	s1,3968(s1)
800007bc:	8e570f50 	lw	s7,3920(s2)
800007c0:	afb40028 	sw	s4,40(sp)
800007c4:	afb50010 	sw	s5,16(sp)
800007c8:	afb60014 	sw	s6,20(sp)
800007cc:	afa40018 	sw	a0,24(sp)
800007d0:	afb30020 	sw	s3,32(sp)
800007d4:	afb10024 	sw	s1,36(sp)
800007d8:	3c1e8001 	lui	s8,0x8001
800007dc:	afa00030 	sw	zero,48(sp)
800007e0:	00001812 	mflo	v1
800007e4:	afa3002c 	sw	v1,44(sp)
800007e8:	8fa20028 	lw	v0,40(sp)
800007ec:	1840010a 	blez	v0,80000c18 <nand_boot+0x6a8>
800007f0:	8fa20030 	lw	v0,48(sp)
800007f4:	afa0001c 	sw	zero,28(sp)
800007f8:	8fa2001c 	lw	v0,28(sp)
800007fc:	8fa3002c 	lw	v1,44(sp)
80000800:	00400013 	mtlo	v0
80000804:	8fa20028 	lw	v0,40(sp)
80000808:	70430000 	madd	v0,v1
8000080c:	8fa30010 	lw	v1,16(sp)
80000810:	24020800 	li	v0,2048
80000814:	1062013e 	beq	v1,v0,80000d10 <nand_boot+0x7a0>
80000818:	00003812 	mflo	a3
8000081c:	3c03b800 	lui	v1,0xb800
80000820:	24020050 	li	v0,80
80000824:	34638000 	ori	v1,v1,0x8000
80000828:	3c04b801 	lui	a0,0xb801
8000082c:	a0620000 	sb	v0,0(v1)
80000830:	a0800000 	sb	zero,0(a0)
80000834:	00071203 	sra	v0,a3,0x8
80000838:	304900ff 	andi	t1,v0,0xff
8000083c:	3c03b801 	lui	v1,0xb801
80000840:	30e800ff 	andi	t0,a3,0xff
80000844:	a0680000 	sb	t0,0(v1)
80000848:	a0690000 	sb	t1,0(v1)
8000084c:	8fa40014 	lw	a0,20(sp)
80000850:	24020003 	li	v0,3
80000854:	108200fb 	beq	a0,v0,80000c44 <nand_boot+0x6d4>
80000858:	00071403 	sra	v0,a3,0x10
8000085c:	8fa30010 	lw	v1,16(sp)
80000860:	24020800 	li	v0,2048
80000864:	106200a1 	beq	v1,v0,80000aec <nand_boot+0x57c>
80000868:	3c02b800 	lui	v0,0xb800
8000086c:	08000220 	j	80000880 <nand_boot+0x310>
80000870:	24042710 	li	a0,10000
80000874:	2402ffff 	li	v0,-1
80000878:	10820009 	beq	a0,v0,800008a0 <nand_boot+0x330>
8000087c:	3c02b001 	lui	v0,0xb001
80000880:	3c02b001 	lui	v0,0xb001
80000884:	34420200 	ori	v0,v0,0x200
80000888:	8c430000 	lw	v1,0(v0)
8000088c:	3c024000 	lui	v0,0x4000
80000890:	00621824 	and	v1,v1,v0
80000894:	1460fff7 	bnez	v1,80000874 <nand_boot+0x304>
80000898:	2484ffff 	addiu	a0,a0,-1
8000089c:	3c02b001 	lui	v0,0xb001
800008a0:	34420200 	ori	v0,v0,0x200
800008a4:	8c430000 	lw	v1,0(v0)
800008a8:	3c044000 	lui	a0,0x4000
800008ac:	00641824 	and	v1,v1,a0
800008b0:	1060fffb 	beqz	v1,800008a0 <nand_boot+0x330>
800008b4:	3c02b001 	lui	v0,0xb001
800008b8:	8fa40018 	lw	a0,24(sp)
800008bc:	24020008 	li	v0,8
800008c0:	10820107 	beq	a0,v0,80000ce0 <nand_boot+0x770>
800008c4:	00000000 	nop
800008c8:	1ae0000a 	blez	s7,800008f4 <nand_boot+0x384>
800008cc:	3c028000 	lui	v0,0x8000
800008d0:	24450f84 	addiu	a1,v0,3972
800008d4:	00002021 	move	a0,zero
800008d8:	3c06b800 	lui	a2,0xb800
800008dc:	24840002 	addiu	a0,a0,2
800008e0:	94c20000 	lhu	v0,0(a2)
800008e4:	0097182a 	slt	v1,a0,s7
800008e8:	a4a20000 	sh	v0,0(a1)
800008ec:	1460fffb 	bnez	v1,800008dc <nand_boot+0x36c>
800008f0:	24a50002 	addiu	a1,a1,2
800008f4:	8fa30010 	lw	v1,16(sp)
800008f8:	24020200 	li	v0,512
800008fc:	106200d5 	beq	v1,v0,80000c54 <nand_boot+0x6e4>
80000900:	3c02b800 	lui	v0,0xb800
80000904:	34428000 	ori	v0,v0,0x8000
80000908:	3c03b801 	lui	v1,0xb801
8000090c:	a0400000 	sb	zero,0(v0)
80000910:	a0600000 	sb	zero,0(v1)
80000914:	8fa40010 	lw	a0,16(sp)
80000918:	24020800 	li	v0,2048
8000091c:	10820105 	beq	a0,v0,80000d34 <nand_boot+0x7c4>
80000920:	00000000 	nop
80000924:	3c03b801 	lui	v1,0xb801
80000928:	a0680000 	sb	t0,0(v1)
8000092c:	a0690000 	sb	t1,0(v1)
80000930:	8fa40014 	lw	a0,20(sp)
80000934:	24020003 	li	v0,3
80000938:	108200e5 	beq	a0,v0,80000cd0 <nand_boot+0x760>
8000093c:	00071403 	sra	v0,a3,0x10
80000940:	8fa30010 	lw	v1,16(sp)
80000944:	24020800 	li	v0,2048
80000948:	1062006d 	beq	v1,v0,80000b00 <nand_boot+0x590>
8000094c:	3c02b800 	lui	v0,0xb800
80000950:	08000259 	j	80000964 <nand_boot+0x3f4>
80000954:	24042710 	li	a0,10000
80000958:	2402ffff 	li	v0,-1
8000095c:	10820009 	beq	a0,v0,80000984 <nand_boot+0x414>
80000960:	3c02b001 	lui	v0,0xb001
80000964:	3c02b001 	lui	v0,0xb001
80000968:	34420200 	ori	v0,v0,0x200
8000096c:	8c430000 	lw	v1,0(v0)
80000970:	3c024000 	lui	v0,0x4000
80000974:	00621824 	and	v1,v1,v0
80000978:	1460fff7 	bnez	v1,80000958 <nand_boot+0x3e8>
8000097c:	2484ffff 	addiu	a0,a0,-1
80000980:	3c02b001 	lui	v0,0xb001
80000984:	34420200 	ori	v0,v0,0x200
80000988:	8c430000 	lw	v1,0(v0)
8000098c:	3c044000 	lui	a0,0x4000
80000990:	00641824 	and	v1,v1,a0
80000994:	1060fffb 	beqz	v1,80000984 <nand_boot+0x414>
80000998:	3c02b001 	lui	v0,0xb001
8000099c:	8fa40020 	lw	a0,32(sp)
800009a0:	1880008a 	blez	a0,80000bcc <nand_boot+0x65c>
800009a4:	3c028000 	lui	v0,0x8000
800009a8:	3c15b301 	lui	s5,0xb301
800009ac:	24030007 	li	v1,7
800009b0:	24530f8a 	addiu	s3,v0,3978
800009b4:	36b20100 	ori	s2,s5,0x100
800009b8:	36a20114 	ori	v0,s5,0x114
800009bc:	ac400000 	sw	zero,0(v0)
800009c0:	ae430000 	sw	v1,0(s2)
800009c4:	8fa30018 	lw	v1,24(sp)
800009c8:	24020008 	li	v0,8
800009cc:	27d00200 	addiu	s0,s8,512
800009d0:	03c08821 	move	s1,s8
800009d4:	1062003c 	beq	v1,v0,80000ac8 <nand_boot+0x558>
800009d8:	0000a021 	move	s4,zero
800009dc:	02201821 	move	v1,s1
800009e0:	3c04b800 	lui	a0,0xb800
800009e4:	94820000 	lhu	v0,0(a0)
800009e8:	a4620000 	sh	v0,0(v1)
800009ec:	24630002 	addiu	v1,v1,2
800009f0:	1470fffc 	bne	v1,s0,800009e4 <nand_boot+0x474>
800009f4:	3c028000 	lui	v0,0x8000
800009f8:	24420f38 	addiu	v0,v0,3896
800009fc:	8c450000 	lw	a1,0(v0)
80000a00:	02601821 	move	v1,s3
80000a04:	36a40108 	ori	a0,s5,0x108
80000a08:	90620000 	lbu	v0,0(v1)
80000a0c:	24630001 	addiu	v1,v1,1
80000a10:	a0820000 	sb	v0,0(a0)
80000a14:	24840001 	addiu	a0,a0,1
80000a18:	1485fffb 	bne	a0,a1,80000a08 <nand_boot+0x498>
80000a1c:	00000000 	nop
80000a20:	8e420000 	lw	v0,0(s2)
80000a24:	3c038000 	lui	v1,0x8000
80000a28:	24630f3c 	addiu	v1,v1,3900
80000a2c:	34420010 	ori	v0,v0,0x10
80000a30:	8c640000 	lw	a0,0(v1)
80000a34:	3c16b301 	lui	s6,0xb301
80000a38:	ae420000 	sw	v0,0(s2)
80000a3c:	8c820000 	lw	v0,0(a0)
80000a40:	30420008 	andi	v0,v0,0x8
80000a44:	1040fffd 	beqz	v0,80000a3c <nand_boot+0x4cc>
80000a48:	00000000 	nop
80000a4c:	8e420000 	lw	v0,0(s2)
80000a50:	2403fffe 	li	v1,-2
80000a54:	00431024 	and	v0,v0,v1
80000a58:	ae420000 	sw	v0,0(s2)
80000a5c:	8c830000 	lw	v1,0(a0)
80000a60:	30620001 	andi	v0,v1,0x1
80000a64:	1040000b 	beqz	v0,80000a94 <nand_boot+0x524>
80000a68:	30620002 	andi	v0,v1,0x2
80000a6c:	14400009 	bnez	v0,80000a94 <nand_boot+0x524>
80000a70:	00031f42 	srl	v1,v1,0x1d
80000a74:	24020002 	li	v0,2
80000a78:	1062003b 	beq	v1,v0,80000b68 <nand_boot+0x5f8>
80000a7c:	2c620003 	sltiu	v0,v1,3
80000a80:	10400024 	beqz	v0,80000b14 <nand_boot+0x5a4>
80000a84:	24020003 	li	v0,3
80000a88:	24020001 	li	v0,1
80000a8c:	10620041 	beq	v1,v0,80000b94 <nand_boot+0x624>
80000a90:	3c02b301 	lui	v0,0xb301
80000a94:	8fa40020 	lw	a0,32(sp)
80000a98:	26940001 	addiu	s4,s4,1
80000a9c:	26100200 	addiu	s0,s0,512
80000aa0:	1094004a 	beq	a0,s4,80000bcc <nand_boot+0x65c>
80000aa4:	26730009 	addiu	s3,s3,9
80000aa8:	36a20114 	ori	v0,s5,0x114
80000aac:	24030007 	li	v1,7
80000ab0:	ac400000 	sw	zero,0(v0)
80000ab4:	ae430000 	sw	v1,0(s2)
80000ab8:	8fa30018 	lw	v1,24(sp)
80000abc:	24020008 	li	v0,8
80000ac0:	1462ffc6 	bne	v1,v0,800009dc <nand_boot+0x46c>
80000ac4:	26310200 	addiu	s1,s1,512
80000ac8:	02201821 	move	v1,s1
80000acc:	3c04b800 	lui	a0,0xb800
80000ad0:	90820000 	lbu	v0,0(a0)
80000ad4:	a0620000 	sb	v0,0(v1)
80000ad8:	24630001 	addiu	v1,v1,1
80000adc:	1603fffc 	bne	s0,v1,80000ad0 <nand_boot+0x560>
80000ae0:	3c028000 	lui	v0,0x8000
80000ae4:	0800027f 	j	800009fc <nand_boot+0x48c>
80000ae8:	24420f38 	addiu	v0,v0,3896
80000aec:	24030030 	li	v1,48
80000af0:	34428000 	ori	v0,v0,0x8000
80000af4:	a0430000 	sb	v1,0(v0)
80000af8:	08000220 	j	80000880 <nand_boot+0x310>
80000afc:	24042710 	li	a0,10000
80000b00:	24030030 	li	v1,48
80000b04:	34428000 	ori	v0,v0,0x8000
80000b08:	a0430000 	sb	v1,0(v0)
80000b0c:	08000259 	j	80000964 <nand_boot+0x3f4>
80000b10:	24042710 	li	a0,10000
80000b14:	1062000b 	beq	v1,v0,80000b44 <nand_boot+0x5d4>
80000b18:	24020004 	li	v0,4
80000b1c:	1462ffdd 	bne	v1,v0,80000a94 <nand_boot+0x524>
80000b20:	36c20128 	ori	v0,s6,0x128
80000b24:	8c450000 	lw	a1,0(v0)
80000b28:	3c0401ff 	lui	a0,0x1ff
80000b2c:	8c460000 	lw	a2,0(v0)
80000b30:	00a42824 	and	a1,a1,a0
80000b34:	00052c02 	srl	a1,a1,0x10
80000b38:	30c601ff 	andi	a2,a2,0x1ff
80000b3c:	0c000120 	jal	80000480 <rs_correct>
80000b40:	03c02021 	move	a0,s8
80000b44:	36c20124 	ori	v0,s6,0x124
80000b48:	8c450000 	lw	a1,0(v0)
80000b4c:	8c460000 	lw	a2,0(v0)
80000b50:	3c0201ff 	lui	v0,0x1ff
80000b54:	00a22824 	and	a1,a1,v0
80000b58:	00052c02 	srl	a1,a1,0x10
80000b5c:	30c601ff 	andi	a2,a2,0x1ff
80000b60:	0c000120 	jal	80000480 <rs_correct>
80000b64:	03c02021 	move	a0,s8
80000b68:	3c03b301 	lui	v1,0xb301
80000b6c:	34630120 	ori	v1,v1,0x120
80000b70:	8c650000 	lw	a1,0(v1)
80000b74:	3c0401ff 	lui	a0,0x1ff
80000b78:	8c660000 	lw	a2,0(v1)
80000b7c:	00a42824 	and	a1,a1,a0
80000b80:	00052c02 	srl	a1,a1,0x10
80000b84:	30c601ff 	andi	a2,a2,0x1ff
80000b88:	0c000120 	jal	80000480 <rs_correct>
80000b8c:	03c02021 	move	a0,s8
80000b90:	3c02b301 	lui	v0,0xb301
80000b94:	3442011c 	ori	v0,v0,0x11c
80000b98:	8c450000 	lw	a1,0(v0)
80000b9c:	3c0301ff 	lui	v1,0x1ff
80000ba0:	8c460000 	lw	a2,0(v0)
80000ba4:	00a32824 	and	a1,a1,v1
80000ba8:	03c02021 	move	a0,s8
80000bac:	00052c02 	srl	a1,a1,0x10
80000bb0:	0c000120 	jal	80000480 <rs_correct>
80000bb4:	30c601ff 	andi	a2,a2,0x1ff
80000bb8:	8fa40020 	lw	a0,32(sp)
80000bbc:	26940001 	addiu	s4,s4,1
80000bc0:	26100200 	addiu	s0,s0,512
80000bc4:	1494ffb8 	bne	a0,s4,80000aa8 <nand_boot+0x538>
80000bc8:	26730009 	addiu	s3,s3,9
80000bcc:	8fa2001c 	lw	v0,28(sp)
80000bd0:	1440001a 	bnez	v0,80000c3c <nand_boot+0x6cc>
80000bd4:	8fa20010 	lw	v0,16(sp)
80000bd8:	8fa30024 	lw	v1,36(sp)
80000bdc:	3c028000 	lui	v0,0x8000
80000be0:	24420f84 	addiu	v0,v0,3972
80000be4:	00621021 	addu	v0,v1,v0
80000be8:	90440000 	lbu	a0,0(v0)
80000bec:	240300ff 	li	v1,255
80000bf0:	10830011 	beq	a0,v1,80000c38 <nand_boot+0x6c8>
80000bf4:	8fa4002c 	lw	a0,44(sp)
80000bf8:	24840001 	addiu	a0,a0,1
80000bfc:	afa4002c 	sw	a0,44(sp)
80000c00:	8fa3001c 	lw	v1,28(sp)
80000c04:	8fa40028 	lw	a0,40(sp)
80000c08:	24630001 	addiu	v1,v1,1
80000c0c:	1483fefa 	bne	a0,v1,800007f8 <nand_boot+0x288>
80000c10:	afa3001c 	sw	v1,28(sp)
80000c14:	8fa20030 	lw	v0,48(sp)
80000c18:	8fa30034 	lw	v1,52(sp)
80000c1c:	24420001 	addiu	v0,v0,1
80000c20:	10430047 	beq	v0,v1,80000d40 <nand_boot+0x7d0>
80000c24:	afa20030 	sw	v0,48(sp)
80000c28:	8fa4002c 	lw	a0,44(sp)
80000c2c:	24840001 	addiu	a0,a0,1
80000c30:	080001fa 	j	800007e8 <nand_boot+0x278>
80000c34:	afa4002c 	sw	a0,44(sp)
80000c38:	8fa20010 	lw	v0,16(sp)
80000c3c:	08000300 	j	80000c00 <nand_boot+0x690>
80000c40:	03c2f021 	addu	s8,s8,v0
80000c44:	304200ff 	andi	v0,v0,0xff
80000c48:	a0620000 	sb	v0,0(v1)
80000c4c:	08000218 	j	80000860 <nand_boot+0x2f0>
80000c50:	8fa30010 	lw	v1,16(sp)
80000c54:	3c02b001 	lui	v0,0xb001
80000c58:	34460200 	ori	a2,v0,0x200
80000c5c:	24032710 	li	v1,10000
80000c60:	3c054000 	lui	a1,0x4000
80000c64:	0800031d 	j	80000c74 <nand_boot+0x704>
80000c68:	2404ffff 	li	a0,-1
80000c6c:	10640006 	beq	v1,a0,80000c88 <nand_boot+0x718>
80000c70:	3c02b001 	lui	v0,0xb001
80000c74:	8cc20000 	lw	v0,0(a2)
80000c78:	00451024 	and	v0,v0,a1
80000c7c:	1440fffb 	bnez	v0,80000c6c <nand_boot+0x6fc>
80000c80:	2463ffff 	addiu	v1,v1,-1
80000c84:	3c02b001 	lui	v0,0xb001
80000c88:	34420200 	ori	v0,v0,0x200
80000c8c:	8c430000 	lw	v1,0(v0)
80000c90:	3c044000 	lui	a0,0x4000
80000c94:	00641824 	and	v1,v1,a0
80000c98:	1060fffb 	beqz	v1,80000c88 <nand_boot+0x718>
80000c9c:	3c02b001 	lui	v0,0xb001
80000ca0:	3c02b800 	lui	v0,0xb800
80000ca4:	34428000 	ori	v0,v0,0x8000
80000ca8:	3c03b801 	lui	v1,0xb801
80000cac:	a0400000 	sb	zero,0(v0)
80000cb0:	a0600000 	sb	zero,0(v1)
80000cb4:	3c03b801 	lui	v1,0xb801
80000cb8:	a0680000 	sb	t0,0(v1)
80000cbc:	a0690000 	sb	t1,0(v1)
80000cc0:	8fa40014 	lw	a0,20(sp)
80000cc4:	24020003 	li	v0,3
80000cc8:	1482ff1d 	bne	a0,v0,80000940 <nand_boot+0x3d0>
80000ccc:	00071403 	sra	v0,a3,0x10
80000cd0:	304200ff 	andi	v0,v0,0xff
80000cd4:	a0620000 	sb	v0,0(v1)
80000cd8:	08000251 	j	80000944 <nand_boot+0x3d4>
80000cdc:	8fa30010 	lw	v1,16(sp)
80000ce0:	1ae0ff04 	blez	s7,800008f4 <nand_boot+0x384>
80000ce4:	3c028000 	lui	v0,0x8000
80000ce8:	24430f84 	addiu	v1,v0,3972
80000cec:	3c05b800 	lui	a1,0xb800
80000cf0:	02e32021 	addu	a0,s7,v1
80000cf4:	90a20000 	lbu	v0,0(a1)
80000cf8:	a0620000 	sb	v0,0(v1)
80000cfc:	24630001 	addiu	v1,v1,1
80000d00:	1483fffc 	bne	a0,v1,80000cf4 <nand_boot+0x784>
80000d04:	00000000 	nop
80000d08:	0800023e 	j	800008f8 <nand_boot+0x388>
80000d0c:	8fa30010 	lw	v1,16(sp)
80000d10:	3c03b800 	lui	v1,0xb800
80000d14:	34638000 	ori	v1,v1,0x8000
80000d18:	a0600000 	sb	zero,0(v1)
80000d1c:	3c02b801 	lui	v0,0xb801
80000d20:	24030008 	li	v1,8
80000d24:	a0400000 	sb	zero,0(v0)
80000d28:	a0430000 	sb	v1,0(v0)
80000d2c:	0800020e 	j	80000838 <nand_boot+0x2c8>
80000d30:	00071203 	sra	v0,a3,0x8
80000d34:	a0600000 	sb	zero,0(v1)
80000d38:	0800024a 	j	80000928 <nand_boot+0x3b8>
80000d3c:	3c03b801 	lui	v1,0xb801
80000d40:	3c05b301 	lui	a1,0xb301
80000d44:	34a50050 	ori	a1,a1,0x50
80000d48:	8ca30000 	lw	v1,0(a1)
80000d4c:	2402fffd 	li	v0,-3
80000d50:	00621824 	and	v1,v1,v0
80000d54:	3c048000 	lui	a0,0x8000
80000d58:	aca30000 	sw	v1,0(a1)
80000d5c:	0c0000fe 	jal	800003f8 <serial_puts>
80000d60:	24840f20 	addiu	a0,a0,3872
80000d64:	0c00013e 	jal	800004f8 <serial_puts_hex>
80000d68:	3c048001 	lui	a0,0x8001
80000d6c:	3c048000 	lui	a0,0x8000
80000d70:	0c0000fe 	jal	800003f8 <serial_puts>
80000d74:	24840f30 	addiu	a0,a0,3888
80000d78:	3c02b000 	lui	v0,0xb000
80000d7c:	34441008 	ori	a0,v0,0x1008
80000d80:	2403ffff 	li	v1,-1
80000d84:	34421010 	ori	v0,v0,0x1010
80000d88:	8c450000 	lw	a1,0(v0)
80000d8c:	ac830000 	sw	v1,0(a0)
80000d90:	8fbf005c 	lw	ra,92(sp)
80000d94:	8fbe0058 	lw	s8,88(sp)
80000d98:	8fb70054 	lw	s7,84(sp)
80000d9c:	8fb60050 	lw	s6,80(sp)
80000da0:	8fb5004c 	lw	s5,76(sp)
80000da4:	8fb40048 	lw	s4,72(sp)
80000da8:	8fb30044 	lw	s3,68(sp)
80000dac:	8fb20040 	lw	s2,64(sp)
80000db0:	8fb1003c 	lw	s1,60(sp)
80000db4:	8fb00038 	lw	s0,56(sp)
80000db8:	3c198001 	lui	t9,0x8001
80000dbc:	03200008 	jr	t9
80000dc0:	27bd0060 	addiu	sp,sp,96
80000dc4:	24020200 	li	v0,512
80000dc8:	24030008 	li	v1,8
80000dcc:	3c158000 	lui	s5,0x8000
80000dd0:	3c048000 	lui	a0,0x8000
80000dd4:	3c168000 	lui	s6,0x8000
80000dd8:	3c148000 	lui	s4,0x8000
80000ddc:	aea20f40 	sw	v0,3904(s5)
80000de0:	ac830f44 	sw	v1,3908(a0)
80000de4:	24020003 	li	v0,3
80000de8:	24030020 	li	v1,32
80000dec:	240b0005 	li	t3,5
80000df0:	240a0010 	li	t2,16
80000df4:	24094000 	li	t1,16384
80000df8:	24080001 	li	t0,1
80000dfc:	aec20f48 	sw	v0,3912(s6)
80000e00:	080001c1 	j	80000704 <nand_boot+0x194>
80000e04:	ae830f4c 	sw	v1,3916(s4)
